target datalayout = "e-m:e-p270:32:32-p271:32:32-p272:64:64-i64:64-i128:128-f80:128-n8:16:32:64-S128"
target triple = "x86_64-unknown-linux-gnu"

%class.hilbert_basis = type <{ ptr, %class.vector, %class.svector, %class.vector.1, %class.svector.2, %class.svector.2, %class.svector.2, %class.svector.2, %class.svector.2, ptr, ptr, %"struct.hilbert_basis::stats", [4 x i8], ptr, %class.svector.4, i32, i8, i8, i8, i8 }>
%class.vector = type { ptr }
%class.svector = type { %class.vector.0 }
%class.vector.0 = type { ptr }
%class.vector.1 = type { ptr }
%class.svector.2 = type { %class.vector.3 }
%class.vector.3 = type { ptr }
%"struct.hilbert_basis::stats" = type { i32, i32, i32 }
%class.svector.4 = type { %class.vector.5 }
%class.vector.5 = type { ptr }
%class.checked_int64 = type { i64 }
%"class.hilbert_basis::values" = type { ptr }

@_ZTV12z3_exception = external unnamed_addr constant { [6 x ptr] }, align 8
@_ZTIN13checked_int64ILb1EE18overflow_exceptionE = linkonce_odr hidden constant { ptr, ptr, ptr } { ptr getelementptr inbounds (ptr, ptr @_ZTVN10__cxxabiv120__si_class_type_infoE, i64 2), ptr @_ZTSN13checked_int64ILb1EE18overflow_exceptionE, ptr @_ZTI12z3_exception }, comdat, align 8

; Function Attrs: mustprogress nounwind uwtable
define linkonce_odr hidden void @_ZN12z3_exceptionC2Ev(ptr noundef nonnull align 8 dereferenceable(8) %this) unnamed_addr #5 comdat align 2 {
entry:
  %this.addr = alloca ptr, align 8
  store ptr %this, ptr %this.addr, align 8
  %this1 = load ptr, ptr %this.addr, align 8
  store ptr getelementptr inbounds ({ [6 x ptr] }, ptr @_ZTV12z3_exception, i32 0, i32 0, i32 2), ptr %this1, align 8
  ret void
}

; Function Attrs: mustprogress nounwind uwtable
define linkonce_odr hidden noundef nonnull align 8 dereferenceable(8) ptr @_ZNK6vectorIS_I13checked_int64ILb1EELb1EjELb1EjEixEj(ptr noundef nonnull align 8 dereferenceable(8) %this, i32 noundef %idx) #5 comdat align 2 {
entry:
  %this.addr = alloca ptr, align 8
  %idx.addr = alloca i32, align 4
  store ptr %this, ptr %this.addr, align 8
  store i32 %idx, ptr %idx.addr, align 4
  %this1 = load ptr, ptr %this.addr, align 8
  %m_data = getelementptr inbounds %class.vector, ptr %this1, i32 0, i32 0
  %0 = load ptr, ptr %m_data, align 8
  %1 = load i32, ptr %idx.addr, align 4
  %idxprom = zext i32 %1 to i64
  %arrayidx = getelementptr inbounds %class.vector.1, ptr %0, i64 %idxprom
  ret ptr %arrayidx
}

; Function Attrs: mustprogress nounwind uwtable
define linkonce_odr hidden noundef i32 @_ZNK6vectorIS_I13checked_int64ILb1EELb1EjELb1EjE4sizeEv(ptr noundef nonnull align 8 dereferenceable(8) %this) #5 comdat align 2 {
entry:
  %retval = alloca i32, align 4
  %this.addr = alloca ptr, align 8
  store ptr %this, ptr %this.addr, align 8
  %this1 = load ptr, ptr %this.addr, align 8
  %m_data = getelementptr inbounds %class.vector, ptr %this1, i32 0, i32 0
  %0 = load ptr, ptr %m_data, align 8
  %cmp = icmp eq ptr %0, null
  br i1 %cmp, label %if.then, label %if.end

if.then:                                          ; preds = %entry
  store i32 0, ptr %retval, align 4
  br label %return

if.end:                                           ; preds = %entry
  %m_data2 = getelementptr inbounds %class.vector, ptr %this1, i32 0, i32 0
  %1 = load ptr, ptr %m_data2, align 8
  %arrayidx = getelementptr inbounds i32, ptr %1, i64 -1
  %2 = load i32, ptr %arrayidx, align 4
  store i32 %2, ptr %retval, align 4
  br label %return

return:                                           ; preds = %if.end, %if.then
  %3 = load i32, ptr %retval, align 4
  ret i32 %3
}

; Function Attrs: mustprogress nounwind uwtable
define linkonce_odr hidden void @_ZN13checked_int64ILb1EE18overflow_exceptionC2Ev(ptr noundef nonnull align 8 dereferenceable(8) %this) unnamed_addr #5 comdat align 2 {
entry:
  %this.addr = alloca ptr, align 8
  store ptr %this, ptr %this.addr, align 8
  %this1 = load ptr, ptr %this.addr, align 8
  call void @_ZN12z3_exceptionC2Ev(ptr noundef nonnull align 8 dereferenceable(8) %this1) #3
  store ptr getelementptr inbounds ({ [6 x ptr] }, ptr @_ZTVN13checked_int64ILb1EE18overflow_exceptionE, i32 0, i32 0, i32 2), ptr %this1, align 8
  ret void
}

; Function Attrs: mustprogress nounwind uwtable
define linkonce_odr hidden noundef i32 @_ZNK6vectorI13checked_int64ILb1EELb1EjE4sizeEv(ptr noundef nonnull align 8 dereferenceable(8) %this) #5 comdat align 2 {
entry:
  %retval = alloca i32, align 4
  %this.addr = alloca ptr, align 8
  store ptr %this, ptr %this.addr, align 8
  %this1 = load ptr, ptr %this.addr, align 8
  %m_data = getelementptr inbounds %class.vector.1, ptr %this1, i32 0, i32 0
  %0 = load ptr, ptr %m_data, align 8
  %cmp = icmp eq ptr %0, null
  br i1 %cmp, label %if.then, label %if.end

if.then:                                          ; preds = %entry
  store i32 0, ptr %retval, align 4
  br label %return

if.end:                                           ; preds = %entry
  %m_data2 = getelementptr inbounds %class.vector.1, ptr %this1, i32 0, i32 0
  %1 = load ptr, ptr %m_data2, align 8
  %arrayidx = getelementptr inbounds i32, ptr %1, i64 -1
  %2 = load i32, ptr %arrayidx, align 4
  store i32 %2, ptr %retval, align 4
  br label %return

return:                                           ; preds = %if.end, %if.then
  %3 = load i32, ptr %retval, align 4
  ret i32 %3
}

; Function Attrs: mustprogress uwtable
define linkonce_odr hidden noundef nonnull align 8 dereferenceable(8) ptr @_ZNK6vectorIS_I13checked_int64ILb1EELb1EjELb1EjE4backEv(ptr noundef nonnull align 8 dereferenceable(8) %this) #4 comdat align 2 {
entry:
  %this.addr = alloca ptr, align 8
  store ptr %this, ptr %this.addr, align 8
  %this1 = load ptr, ptr %this.addr, align 8
  %call = call noundef i32 @_ZNK6vectorIS_I13checked_int64ILb1EELb1EjELb1EjE4sizeEv(ptr noundef nonnull align 8 dereferenceable(8) %this1)
  %sub = sub i32 %call, 1
  %call2 = call noundef nonnull align 8 dereferenceable(8) ptr @_ZNK6vectorIS_I13checked_int64ILb1EELb1EjELb1EjEixEj(ptr noundef nonnull align 8 dereferenceable(8) %this1, i32 noundef %sub)
  ret ptr %call2
}

; Function Attrs: mustprogress nounwind uwtable
define linkonce_odr hidden noundef zeroext i1 @_ZNK6vectorIS_I13checked_int64ILb1EELb1EjELb1EjE5emptyEv(ptr noundef nonnull align 8 dereferenceable(8) %this) #5 comdat align 2 {
entry:
  %this.addr = alloca ptr, align 8
  store ptr %this, ptr %this.addr, align 8
  %this1 = load ptr, ptr %this.addr, align 8
  %m_data = getelementptr inbounds %class.vector, ptr %this1, i32 0, i32 0
  %0 = load ptr, ptr %m_data, align 8
  %cmp = icmp eq ptr %0, null
  br i1 %cmp, label %lor.end, label %lor.rhs

lor.rhs:                                          ; preds = %entry
  %m_data2 = getelementptr inbounds %class.vector, ptr %this1, i32 0, i32 0
  %1 = load ptr, ptr %m_data2, align 8
  %arrayidx = getelementptr inbounds i32, ptr %1, i64 -1
  %2 = load i32, ptr %arrayidx, align 4
  %cmp3 = icmp eq i32 %2, 0
  br label %lor.end

lor.end:                                          ; preds = %lor.rhs, %entry
  %3 = phi i1 [ true, %entry ], [ %cmp3, %lor.rhs ]
  ret i1 %3
}

; Function Attrs: mustprogress uwtable
define linkonce_odr hidden noundef nonnull align 8 dereferenceable(8) ptr @_ZN13checked_int64ILb1EEpLERKS0_(ptr noundef nonnull align 8 dereferenceable(8) %this, ptr noundef nonnull align 8 dereferenceable(8) %other) #4 comdat align 2 {
entry:
  %this.addr = alloca ptr, align 8
  %other.addr = alloca ptr, align 8
  %x = alloca i64, align 8
  %y = alloca i64, align 8
  %r = alloca i64, align 8
  store ptr %this, ptr %this.addr, align 8
  store ptr %other, ptr %other.addr, align 8
  %this1 = load ptr, ptr %this.addr, align 8
  %m_value = getelementptr inbounds %class.checked_int64, ptr %this1, i32 0, i32 0
  %0 = load i64, ptr %m_value, align 8
  store i64 %0, ptr %x, align 8
  %1 = load ptr, ptr %other.addr, align 8
  %m_value2 = getelementptr inbounds %class.checked_int64, ptr %1, i32 0, i32 0
  %2 = load i64, ptr %m_value2, align 8
  store i64 %2, ptr %y, align 8
  %3 = load i64, ptr %x, align 8
  %4 = load i64, ptr %y, align 8
  %add = add i64 %3, %4
  store i64 %add, ptr %r, align 8
  %m_value3 = getelementptr inbounds %class.checked_int64, ptr %this1, i32 0, i32 0
  %5 = load i64, ptr %m_value3, align 8
  %cmp = icmp sgt i64 %5, 0
  br i1 %cmp, label %land.lhs.true, label %if.end

land.lhs.true:                                    ; preds = %entry
  %6 = load ptr, ptr %other.addr, align 8
  %m_value4 = getelementptr inbounds %class.checked_int64, ptr %6, i32 0, i32 0
  %7 = load i64, ptr %m_value4, align 8
  %cmp5 = icmp sgt i64 %7, 0
  br i1 %cmp5, label %land.lhs.true6, label %if.end

land.lhs.true6:                                   ; preds = %land.lhs.true
  %8 = load i64, ptr %r, align 8
  %cmp7 = icmp sle i64 %8, 0
  br i1 %cmp7, label %if.then, label %if.end

if.then:                                          ; preds = %land.lhs.true6
  %exception = call ptr @__cxa_allocate_exception(i64 8) #3
  call void @llvm.memset.p0.i64(ptr align 16 %exception, i8 0, i64 8, i1 false)
  call void @_ZN13checked_int64ILb1EE18overflow_exceptionC2Ev(ptr noundef nonnull align 8 dereferenceable(8) %exception) #3
  call void @__cxa_throw(ptr %exception, ptr @_ZTIN13checked_int64ILb1EE18overflow_exceptionE, ptr @_ZN13checked_int64ILb1EE18overflow_exceptionD2Ev) #16
  unreachable

if.end:                                           ; preds = %land.lhs.true6, %land.lhs.true, %entry
  %m_value8 = getelementptr inbounds %class.checked_int64, ptr %this1, i32 0, i32 0
  %9 = load i64, ptr %m_value8, align 8
  %cmp9 = icmp slt i64 %9, 0
  br i1 %cmp9, label %land.lhs.true10, label %if.end17

land.lhs.true10:                                  ; preds = %if.end
  %10 = load ptr, ptr %other.addr, align 8
  %m_value11 = getelementptr inbounds %class.checked_int64, ptr %10, i32 0, i32 0
  %11 = load i64, ptr %m_value11, align 8
  %cmp12 = icmp slt i64 %11, 0
  br i1 %cmp12, label %land.lhs.true13, label %if.end17

land.lhs.true13:                                  ; preds = %land.lhs.true10
  %12 = load i64, ptr %r, align 8
  %cmp14 = icmp sge i64 %12, 0
  br i1 %cmp14, label %if.then15, label %if.end17

if.then15:                                        ; preds = %land.lhs.true13
  %exception16 = call ptr @__cxa_allocate_exception(i64 8) #3
  call void @llvm.memset.p0.i64(ptr align 16 %exception16, i8 0, i64 8, i1 false)
  call void @_ZN13checked_int64ILb1EE18overflow_exceptionC2Ev(ptr noundef nonnull align 8 dereferenceable(8) %exception16) #3
  call void @__cxa_throw(ptr %exception16, ptr @_ZTIN13checked_int64ILb1EE18overflow_exceptionE, ptr @_ZN13checked_int64ILb1EE18overflow_exceptionD2Ev) #16
  unreachable

if.end17:                                         ; preds = %land.lhs.true13, %land.lhs.true10, %if.end
  %13 = load i64, ptr %r, align 8
  %m_value18 = getelementptr inbounds %class.checked_int64, ptr %this1, i32 0, i32 0
  store i64 %13, ptr %m_value18, align 8
  ret ptr %this1
}

; Function Attrs: mustprogress uwtable
define linkonce_odr hidden i64 @_ZmlILb1EE13checked_int64IXT_EERKS1_S3_(ptr noundef nonnull align 8 dereferenceable(8) %a, ptr noundef nonnull align 8 dereferenceable(8) %b) #4 comdat {
entry:
  %retval = alloca %class.checked_int64, align 8
  %a.addr = alloca ptr, align 8
  %b.addr = alloca ptr, align 8
  store ptr %a, ptr %a.addr, align 8
  store ptr %b, ptr %b.addr, align 8
  %0 = load ptr, ptr %a.addr, align 8
  call void @llvm.memcpy.p0.p0.i64(ptr align 8 %retval, ptr align 8 %0, i64 8, i1 false)
  %1 = load ptr, ptr %b.addr, align 8
  %call = call noundef nonnull align 8 dereferenceable(8) ptr @_ZN13checked_int64ILb1EEmLERKS0_(ptr noundef nonnull align 8 dereferenceable(8) %retval, ptr noundef nonnull align 8 dereferenceable(8) %1)
  %coerce.dive = getelementptr inbounds %class.checked_int64, ptr %retval, i32 0, i32 0
  %2 = load i64, ptr %coerce.dive, align 8
  ret i64 %2
}

; Function Attrs: mustprogress nounwind uwtable
define linkonce_odr hidden noundef nonnull align 8 dereferenceable(8) ptr @_ZNK6vectorI13checked_int64ILb1EELb1EjEixEj(ptr noundef nonnull align 8 dereferenceable(8) %this, i32 noundef %idx) #5 comdat align 2 {
entry:
  %this.addr = alloca ptr, align 8
  %idx.addr = alloca i32, align 4
  store ptr %this, ptr %this.addr, align 8
  store i32 %idx, ptr %idx.addr, align 4
  %this1 = load ptr, ptr %this.addr, align 8
  %m_data = getelementptr inbounds %class.vector.1, ptr %this1, i32 0, i32 0
  %0 = load ptr, ptr %m_data, align 8
  %1 = load i32, ptr %idx.addr, align 4
  %idxprom = zext i32 %1 to i64
  %arrayidx = getelementptr inbounds %class.checked_int64, ptr %0, i64 %idxprom
  ret ptr %arrayidx
}

; Function Attrs: mustprogress nounwind uwtable
define linkonce_odr hidden noundef nonnull align 8 dereferenceable(8) ptr @_ZNK13hilbert_basis6valuesixEj(ptr noundef nonnull align 8 dereferenceable(8) %this, i32 noundef %i) #5 comdat align 2 {
entry:
  %this.addr = alloca ptr, align 8
  %i.addr = alloca i32, align 4
  store ptr %this, ptr %this.addr, align 8
  store i32 %i, ptr %i.addr, align 4
  %this1 = load ptr, ptr %this.addr, align 8
  %m_values = getelementptr inbounds %"class.hilbert_basis::values", ptr %this1, i32 0, i32 0
  %0 = load ptr, ptr %m_values, align 8
  %1 = load i32, ptr %i.addr, align 4
  %idxprom = zext i32 %1 to i64
  %arrayidx = getelementptr inbounds %class.checked_int64, ptr %0, i64 %idxprom
  ret ptr %arrayidx
}

; Function Attrs: mustprogress uwtable
define hidden noundef i32 @_ZNK13hilbert_basis12get_num_varsEv(ptr noundef nonnull align 8 dereferenceable(127) %this) #4 align 2 {
entry:
  %retval = alloca i32, align 4
  %this.addr = alloca ptr, align 8
  store ptr %this, ptr %this.addr, align 8
  %this1 = load ptr, ptr %this.addr, align 8
  %m_ineqs = getelementptr inbounds %class.hilbert_basis, ptr %this1, i32 0, i32 1
  %call = call noundef zeroext i1 @_ZNK6vectorIS_I13checked_int64ILb1EELb1EjELb1EjE5emptyEv(ptr noundef nonnull align 8 dereferenceable(8) %m_ineqs)
  br i1 %call, label %if.then, label %if.else

if.then:                                          ; preds = %entry
  store i32 0, ptr %retval, align 4
  br label %return

if.else:                                          ; preds = %entry
  %m_ineqs2 = getelementptr inbounds %class.hilbert_basis, ptr %this1, i32 0, i32 1
  %call3 = call noundef nonnull align 8 dereferenceable(8) ptr @_ZNK6vectorIS_I13checked_int64ILb1EELb1EjELb1EjE4backEv(ptr noundef nonnull align 8 dereferenceable(8) %m_ineqs2)
  %call4 = call noundef i32 @_ZNK6vectorI13checked_int64ILb1EELb1EjE4sizeEv(ptr noundef nonnull align 8 dereferenceable(8) %call3)
  store i32 %call4, ptr %retval, align 4
  br label %return

return:                                           ; preds = %if.else, %if.then
  %0 = load i32, ptr %retval, align 4
  ret i32 %0
}

; Function Attrs: mustprogress nounwind uwtable
define linkonce_odr hidden void @_ZN13checked_int64ILb1EEC2El(ptr noundef nonnull align 8 dereferenceable(8) %this, i64 noundef %v) unnamed_addr #5 comdat align 2 {
entry:
  %this.addr = alloca ptr, align 8
  %v.addr = alloca i64, align 8
  store ptr %this, ptr %this.addr, align 8
  store i64 %v, ptr %v.addr, align 8
  %this1 = load ptr, ptr %this.addr, align 8
  %m_value = getelementptr inbounds %class.checked_int64, ptr %this1, i32 0, i32 0
  %0 = load i64, ptr %v.addr, align 8
  store i64 %0, ptr %m_value, align 8
  ret void
}

; Function Attrs: mustprogress uwtable
define hidden i64 @_ZNK13hilbert_basis10get_weightERKNS_6valuesERK6vectorI13checked_int64ILb1EELb1EjE(ptr noundef nonnull align 8 dereferenceable(127) %this, ptr noundef nonnull align 8 dereferenceable(8) %val, ptr noundef nonnull align 8 dereferenceable(8) %ineq) #4 align 2 {
entry:
  %retval = alloca %class.checked_int64, align 8
  %this.addr = alloca ptr, align 8
  %val.addr = alloca ptr, align 8
  %ineq.addr = alloca ptr, align 8
  %num_vars = alloca i32, align 4
  %i = alloca i32, align 4
  %ref.tmp = alloca %class.checked_int64, align 8
  store ptr %this, ptr %this.addr, align 8
  store ptr %val, ptr %val.addr, align 8
  store ptr %ineq, ptr %ineq.addr, align 8
  %this1 = load ptr, ptr %this.addr, align 8
  call void @_ZN13checked_int64ILb1EEC2El(ptr noundef nonnull align 8 dereferenceable(8) %retval, i64 noundef 0)
  %call = call noundef i32 @_ZNK13hilbert_basis12get_num_varsEv(ptr noundef nonnull align 8 dereferenceable(127) %this1)
  store i32 %call, ptr %num_vars, align 4
  store i32 0, ptr %i, align 4
  br label %for.cond

for.cond:                                         ; preds = %for.inc, %entry
  %0 = load i32, ptr %i, align 4
  %1 = load i32, ptr %num_vars, align 4
  %cmp = icmp ult i32 %0, %1
  br i1 %cmp, label %for.body, label %for.end

for.body:                                         ; preds = %for.cond
  %2 = load ptr, ptr %val.addr, align 8
  %3 = load i32, ptr %i, align 4
  %call2 = call noundef nonnull align 8 dereferenceable(8) ptr @_ZNK13hilbert_basis6valuesixEj(ptr noundef nonnull align 8 dereferenceable(8) %2, i32 noundef %3)
  %4 = load ptr, ptr %ineq.addr, align 8
  %5 = load i32, ptr %i, align 4
  %call3 = call noundef nonnull align 8 dereferenceable(8) ptr @_ZNK6vectorI13checked_int64ILb1EELb1EjEixEj(ptr noundef nonnull align 8 dereferenceable(8) %4, i32 noundef %5)
  %call4 = call i64 @_ZmlILb1EE13checked_int64IXT_EERKS1_S3_(ptr noundef nonnull align 8 dereferenceable(8) %call2, ptr noundef nonnull align 8 dereferenceable(8) %call3)
  %coerce.dive = getelementptr inbounds %class.checked_int64, ptr %ref.tmp, i32 0, i32 0
  store i64 %call4, ptr %coerce.dive, align 8
  %call5 = call noundef nonnull align 8 dereferenceable(8) ptr @_ZN13checked_int64ILb1EEpLERKS0_(ptr noundef nonnull align 8 dereferenceable(8) %retval, ptr noundef nonnull align 8 dereferenceable(8) %ref.tmp)
  br label %for.inc

for.inc:                                          ; preds = %for.body
  %6 = load i32, ptr %i, align 4
  %inc = add i32 %6, 1
  store i32 %inc, ptr %i, align 4
  br label %for.cond, !llvm.loop !27

for.end:                                          ; preds = %for.cond
  %coerce.dive6 = getelementptr inbounds %class.checked_int64, ptr %retval, i32 0, i32 0
  %7 = load i64, ptr %coerce.dive6, align 8
  ret i64 %7
}