; Function Attrs: mustprogress uwtable
define hidden i64 @_ZNK13hilbert_basis10get_weightERKNS_6valuesERK6vectorI13checked_int64ILb1EELb1EjE(ptr nocapture noundef nonnull readonly align 8 dereferenceable(127) %this, ptr nocapture noundef nonnull readonly align 8 dereferenceable(8) %val, ptr nocapture noundef nonnull readonly align 8 dereferenceable(8) %ineq) local_unnamed_addr #3 align 2 {
entry:
  %retval.i = alloca %class.checked_int64, align 8
  %m_ineqs.i = getelementptr inbounds i8, ptr %this, i64 8
  %0 = load ptr, ptr %m_ineqs.i, align 8
  %cmp.i.i = icmp eq ptr %0, null
  br i1 %cmp.i.i, label %for.end, label %_ZNK6vectorIS_I13checked_int64ILb1EELb1EjELb1EjE5emptyEv.exit.i

_ZNK6vectorIS_I13checked_int64ILb1EELb1EjELb1EjE5emptyEv.exit.i: ; preds = %entry
  %arrayidx.i.i = getelementptr inbounds i8, ptr %0, i64 -4
  %1 = load i32, ptr %arrayidx.i.i, align 4
  %cmp3.i.i = icmp eq i32 %1, 0
  br i1 %cmp3.i.i, label %for.end, label %_ZNK6vectorIS_I13checked_int64ILb1EELb1EjELb1EjE4backEv.exit.i

_ZNK6vectorIS_I13checked_int64ILb1EELb1EjELb1EjE4backEv.exit.i: ; preds = %_ZNK6vectorIS_I13checked_int64ILb1EELb1EjELb1EjE5emptyEv.exit.i
  %2 = add i32 %1, -1
  %3 = zext i32 %2 to i64
  %arrayidx.i1.i.i = getelementptr inbounds %class.vector.1, ptr %0, i64 %3
  %4 = load ptr, ptr %arrayidx.i1.i.i, align 8
  %cmp.i1.i = icmp eq ptr %4, null
  br i1 %cmp.i1.i, label %for.end, label %_ZNK13hilbert_basis12get_num_varsEv.exit

_ZNK13hilbert_basis12get_num_varsEv.exit:         ; preds = %_ZNK6vectorIS_I13checked_int64ILb1EELb1EjELb1EjE4backEv.exit.i
  %arrayidx.i2.i = getelementptr inbounds i8, ptr %4, i64 -4
  %5 = load i32, ptr %arrayidx.i2.i, align 4
  %cmp9.not = icmp eq i32 %5, 0
  br i1 %cmp9.not, label %for.end, label %for.body.preheader

for.body.preheader:                               ; preds = %_ZNK13hilbert_basis12get_num_varsEv.exit
  %wide.trip.count = zext i32 %5 to i64
  br label %for.body

for.body:                                         ; preds = %for.body.preheader, %_ZN13checked_int64ILb1EEpLERKS0_.exit
  %indvars.iv = phi i64 [ 0, %for.body.preheader ], [ %indvars.iv.next, %_ZN13checked_int64ILb1EEpLERKS0_.exit ]
  %retval.sroa.0.010 = phi i64 [ 0, %for.body.preheader ], [ %add.i, %_ZN13checked_int64ILb1EEpLERKS0_.exit ]
  %6 = load ptr, ptr %val, align 8
  %arrayidx.i = getelementptr inbounds %class.checked_int64, ptr %6, i64 %indvars.iv
  %7 = load ptr, ptr %ineq, align 8
  %arrayidx.i5 = getelementptr inbounds %class.checked_int64, ptr %7, i64 %indvars.iv
  call void @llvm.lifetime.start.p0(i64 8, ptr nonnull %retval.i)
  %8 = load i64, ptr %arrayidx.i, align 8
  store i64 %8, ptr %retval.i, align 8
  %call.i = call noundef nonnull align 8 dereferenceable(8) ptr @_ZN13checked_int64ILb1EEmLERKS0_(ptr noundef nonnull align 8 dereferenceable(8) %retval.i, ptr noundef nonnull align 8 dereferenceable(8) %arrayidx.i5)
  %9 = load i64, ptr %retval.i, align 8
  call void @llvm.lifetime.end.p0(i64 8, ptr nonnull %retval.i)
  %add.i = add i64 %9, %retval.sroa.0.010
  %cmp.i = icmp sgt i64 %retval.sroa.0.010, 0
  br i1 %cmp.i, label %land.lhs.true.i, label %if.end.i

land.lhs.true.i:                                  ; preds = %for.body
  %cmp5.i = icmp sgt i64 %9, 0
  %cmp7.i = icmp slt i64 %add.i, 1
  %or.cond.i = and i1 %cmp5.i, %cmp7.i
  br i1 %or.cond.i, label %if.then.i, label %_ZN13checked_int64ILb1EEpLERKS0_.exit

if.then.i:                                        ; preds = %land.lhs.true.i
  %exception.i = call ptr @__cxa_allocate_exception(i64 8) #22
  store ptr getelementptr inbounds ({ [6 x ptr] }, ptr @_ZTVN13checked_int64ILb1EE18overflow_exceptionE, i64 0, i32 0, i64 2), ptr %exception.i, align 8
  call void @__cxa_throw(ptr nonnull %exception.i, ptr nonnull @_ZTIN13checked_int64ILb1EE18overflow_exceptionE, ptr nonnull @_ZN13checked_int64ILb1EE18overflow_exceptionD2Ev) #24
  unreachable

if.end.i:                                         ; preds = %for.body
  %cmp9.i = icmp slt i64 %retval.sroa.0.010, 0
  br i1 %cmp9.i, label %land.lhs.true10.i, label %_ZN13checked_int64ILb1EEpLERKS0_.exit

land.lhs.true10.i:                                ; preds = %if.end.i
  %cmp12.i = icmp slt i64 %9, 0
  %cmp14.i = icmp sgt i64 %add.i, -1
  %or.cond1.i = and i1 %cmp12.i, %cmp14.i
  br i1 %or.cond1.i, label %if.then15.i, label %_ZN13checked_int64ILb1EEpLERKS0_.exit

if.then15.i:                                      ; preds = %land.lhs.true10.i
  %exception16.i = call ptr @__cxa_allocate_exception(i64 8) #22
  store ptr getelementptr inbounds ({ [6 x ptr] }, ptr @_ZTVN13checked_int64ILb1EE18overflow_exceptionE, i64 0, i32 0, i64 2), ptr %exception16.i, align 8
  call void @__cxa_throw(ptr nonnull %exception16.i, ptr nonnull @_ZTIN13checked_int64ILb1EE18overflow_exceptionE, ptr nonnull @_ZN13checked_int64ILb1EE18overflow_exceptionD2Ev) #24
  unreachable

_ZN13checked_int64ILb1EEpLERKS0_.exit:            ; preds = %land.lhs.true.i, %if.end.i, %land.lhs.true10.i
  %indvars.iv.next = add nuw nsw i64 %indvars.iv, 1
  %exitcond.not = icmp eq i64 %indvars.iv.next, %wide.trip.count
  br i1 %exitcond.not, label %for.end, label %for.body, !llvm.loop !27

for.end:                                          ; preds = %_ZN13checked_int64ILb1EEpLERKS0_.exit, %entry, %_ZNK6vectorIS_I13checked_int64ILb1EELb1EjELb1EjE4backEv.exit.i, %_ZNK6vectorIS_I13checked_int64ILb1EELb1EjELb1EjE5emptyEv.exit.i, %_ZNK13hilbert_basis12get_num_varsEv.exit
  %retval.sroa.0.0.lcssa = phi i64 [ 0, %_ZNK13hilbert_basis12get_num_varsEv.exit ], [ 0, %_ZNK6vectorIS_I13checked_int64ILb1EELb1EjELb1EjE5emptyEv.exit.i ], [ 0, %_ZNK6vectorIS_I13checked_int64ILb1EELb1EjELb1EjE4backEv.exit.i ], [ 0, %entry ], [ %add.i, %_ZN13checked_int64ILb1EEpLERKS0_.exit ]
  ret i64 %retval.sroa.0.0.lcssa
}